; Function Attrs: nounwind uwtable
define void @Gia_ManCountFanoutlessFlops(ptr noundef %0) local_unnamed_addr #2 {
  tail call void @Gia_ManCreateRefs(ptr noundef %0) #26
  %2 = getelementptr i8, ptr %0, i64 16
  %.val22 = load i32, ptr %2, align 8, !tbaa !58
  %3 = icmp sgt i32 %.val22, 0
  br i1 %3, label %.lr.ph, label %.critedge

.lr.ph:                                           ; preds = %1
  %4 = getelementptr i8, ptr %0, i64 32
  %.val18 = load ptr, ptr %4, align 8, !tbaa !3
  %.not = icmp eq ptr %.val18, null
  br i1 %.not, label %.critedge, label %.lr.ph.split

.lr.ph.split:                                     ; preds = %.lr.ph
  %5 = getelementptr i8, ptr %0, i64 144
  %6 = getelementptr i8, ptr %0, i64 64
  %.val21 = load ptr, ptr %6, align 8, !tbaa !44
  %7 = getelementptr i8, ptr %.val21, i64 8
  %.val19.val = load ptr, ptr %7, align 8, !tbaa !29
  %8 = getelementptr i8, ptr %.val21, i64 4
  %.val21.val = load i32, ptr %8, align 4, !tbaa !33
  %invariant.op = sub i32 %.val21.val, %.val22
  %.val17 = load ptr, ptr %5, align 8, !tbaa !34
  %wide.trip.count = zext nneg i32 %.val22 to i64
  br label %9

9:                                                ; preds = %.lr.ph.split, %9
  %indvars.iv = phi i64 [ 0, %.lr.ph.split ], [ %indvars.iv.next, %9 ]
  %.024 = phi i32 [ 0, %.lr.ph.split ], [ %spec.select, %9 ]
  %10 = trunc nuw nsw i64 %indvars.iv to i32
  %.reass = add i32 %invariant.op, %10
  %11 = sext i32 %.reass to i64
  %12 = getelementptr inbounds i32, ptr %.val19.val, i64 %11
  %13 = load i32, ptr %12, align 4, !tbaa !30
  %14 = zext i32 %13 to i64
  %sext.i = shl nuw i64 %14, 32
  %15 = ashr exact i64 %sext.i, 30
  %16 = getelementptr inbounds i8, ptr %.val17, i64 %15
  %17 = load i32, ptr %16, align 4, !tbaa !30
  %18 = icmp eq i32 %17, 0
  %19 = zext i1 %18 to i32
  %spec.select = add nuw nsw i32 %.024, %19
  %indvars.iv.next = add nuw nsw i64 %indvars.iv, 1
  %exitcond.not = icmp eq i64 %indvars.iv.next, %wide.trip.count
  br i1 %exitcond.not, label %.critedge, label %9, !llvm.loop !68

.critedge:                                        ; preds = %9, %.lr.ph, %1
  %.0.lcssa = phi i32 [ 0, %1 ], [ 0, %.lr.ph ], [ %spec.select, %9 ]
  %20 = tail call i32 (ptr, ...) @printf(ptr noundef nonnull dereferenceable(1) @.str.5, i32 noundef %.0.lcssa)
  %21 = getelementptr inbounds nuw i8, ptr %0, i64 144
  %22 = load ptr, ptr %21, align 8, !tbaa !34
  %.not16 = icmp eq ptr %22, null
  br i1 %.not16, label %24, label %23

23:                                               ; preds = %.critedge
  tail call void @free(ptr noundef nonnull %22) #26
  store ptr null, ptr %21, align 8, !tbaa !34
  br label %24

24:                                               ; preds = %.critedge, %23
  ret void
}